target datalayout = "e-m:e-p270:32:32-p271:32:32-p272:64:64-i64:64-i128:128-f80:128-n8:16:32:64-S128"
target triple = "x86_64-pc-linux-gnu"

%class.JvmtiDeferredEvent = type { i32, %union.anon.8 }
%union.anon.8 = type { %struct.anon.10 }
%struct.anon.10 = type { ptr, ptr, ptr }
%class.JvmtiDeferredEventQueue = type { ptr, ptr }
%"class.JvmtiDeferredEventQueue::QueueNode" = type { %class.JvmtiDeferredEvent, ptr }

; Function Attrs: mustprogress nounwind uwtable
define linkonce_odr hidden noundef ptr @_ZNK23JvmtiDeferredEventQueue9QueueNode4nextEv(ptr noundef nonnull align 8 dereferenceable(40) %0) #1 comdat align 2 {
  %2 = alloca ptr, align 8
  store ptr %0, ptr %2, align 8
  %3 = load ptr, ptr %2, align 8
  %4 = getelementptr inbounds %"class.JvmtiDeferredEventQueue::QueueNode", ptr %3, i32 0, i32 1
  %5 = load ptr, ptr %4, align 8
  ret ptr %5
}

; Function Attrs: mustprogress nounwind uwtable
define hidden void @_ZN18JvmtiDeferredEvent11nmethods_doEP14NMethodClosure(ptr noundef nonnull align 8 dereferenceable(32) %0, ptr noundef %1) #1 align 2 {
  %3 = alloca ptr, align 8
  %4 = alloca ptr, align 8
  store ptr %0, ptr %3, align 8
  store ptr %1, ptr %4, align 8
  %5 = load ptr, ptr %3, align 8
  %6 = load ptr, ptr %4, align 8
  %7 = icmp ne ptr %6, null
  br i1 %7, label %8, label %19

8:                                                ; preds = %2
  %9 = getelementptr inbounds %class.JvmtiDeferredEvent, ptr %5, i32 0, i32 0
  %10 = load i32, ptr %9, align 8
  %11 = icmp eq i32 %10, 1
  br i1 %11, label %12, label %19

12:                                               ; preds = %8
  %13 = load ptr, ptr %4, align 8
  %14 = getelementptr inbounds %class.JvmtiDeferredEvent, ptr %5, i32 0, i32 1
  %15 = load ptr, ptr %14, align 8
  %16 = load ptr, ptr %13, align 8
  %17 = getelementptr inbounds ptr, ptr %16, i64 0
  %18 = load ptr, ptr %17, align 8
  call void %18(ptr noundef nonnull align 8 dereferenceable(8) %13, ptr noundef %15)
  br label %19

19:                                               ; preds = %12, %8, %2
  ret void
}

; Function Attrs: mustprogress nounwind uwtable
define linkonce_odr hidden noundef nonnull align 8 dereferenceable(32) ptr @_ZN23JvmtiDeferredEventQueue9QueueNode5eventEv(ptr noundef nonnull align 8 dereferenceable(40) %0) #1 comdat align 2 {
  %2 = alloca ptr, align 8
  store ptr %0, ptr %2, align 8
  %3 = load ptr, ptr %2, align 8
  %4 = getelementptr inbounds %"class.JvmtiDeferredEventQueue::QueueNode", ptr %3, i32 0, i32 0
  ret ptr %4
}

; Function Attrs: mustprogress nounwind uwtable
define hidden void @_ZN23JvmtiDeferredEventQueue11nmethods_doEP14NMethodClosure(ptr noundef nonnull align 8 dereferenceable(16) %0, ptr noundef %1) #1 align 2 {
  %3 = alloca ptr, align 8
  %4 = alloca ptr, align 8
  %5 = alloca ptr, align 8
  store ptr %0, ptr %3, align 8
  store ptr %1, ptr %4, align 8
  %6 = load ptr, ptr %3, align 8
  %7 = getelementptr inbounds %class.JvmtiDeferredEventQueue, ptr %6, i32 0, i32 0
  %8 = load ptr, ptr %7, align 8
  store ptr %8, ptr %5, align 8
  br label %9

9:                                                ; preds = %16, %2
  %10 = load ptr, ptr %5, align 8
  %11 = icmp ne ptr %10, null
  br i1 %11, label %12, label %19

12:                                               ; preds = %9
  %13 = load ptr, ptr %5, align 8
  %14 = call noundef nonnull align 8 dereferenceable(32) ptr @_ZN23JvmtiDeferredEventQueue9QueueNode5eventEv(ptr noundef nonnull align 8 dereferenceable(40) %13)
  %15 = load ptr, ptr %4, align 8
  call void @_ZN18JvmtiDeferredEvent11nmethods_doEP14NMethodClosure(ptr noundef nonnull align 8 dereferenceable(32) %14, ptr noundef %15)
  br label %16

16:                                               ; preds = %12
  %17 = load ptr, ptr %5, align 8
  %18 = call noundef ptr @_ZNK23JvmtiDeferredEventQueue9QueueNode4nextEv(ptr noundef nonnull align 8 dereferenceable(40) %17)
  store ptr %18, ptr %5, align 8
  br label %9, !llvm.loop !24

19:                                               ; preds = %9
  ret void
}