; Function Attrs: mustprogress nounwind uwtable
define hidden void @_ZN23JvmtiDeferredEventQueue11nmethods_doEP14NMethodClosure(ptr nocapture noundef nonnull readonly align 8 dereferenceable(16) %0, ptr noundef %1) local_unnamed_addr #0 align 2 {
  %.05 = load ptr, ptr %0, align 8
  %.not6 = icmp eq ptr %.05, null
  %.not.i.not = icmp eq ptr %1, null
  %or.cond = or i1 %.not6, %.not.i.not
  br i1 %or.cond, label %._crit_edge, label %.lr.ph.split

.lr.ph.split:                                     ; preds = %2, %_ZN18JvmtiDeferredEvent11nmethods_doEP14NMethodClosure.exit
  %.07 = phi ptr [ %.0, %_ZN18JvmtiDeferredEvent11nmethods_doEP14NMethodClosure.exit ], [ %.05, %2 ]
  %3 = load i32, ptr %.07, align 8
  %4 = icmp eq i32 %3, 1
  br i1 %4, label %5, label %_ZN18JvmtiDeferredEvent11nmethods_doEP14NMethodClosure.exit

5:                                                ; preds = %.lr.ph.split
  %6 = getelementptr inbounds i8, ptr %.07, i64 8
  %7 = load ptr, ptr %6, align 8
  %8 = load ptr, ptr %1, align 8
  %9 = load ptr, ptr %8, align 8
  tail call void %9(ptr noundef nonnull align 8 dereferenceable(8) %1, ptr noundef %7) #17
  br label %_ZN18JvmtiDeferredEvent11nmethods_doEP14NMethodClosure.exit

_ZN18JvmtiDeferredEvent11nmethods_doEP14NMethodClosure.exit: ; preds = %.lr.ph.split, %5
  %10 = getelementptr inbounds i8, ptr %.07, i64 32
  %.0 = load ptr, ptr %10, align 8
  %.not = icmp eq ptr %.0, null
  br i1 %.not, label %._crit_edge, label %.lr.ph.split, !llvm.loop !37

._crit_edge:                                      ; preds = %_ZN18JvmtiDeferredEvent11nmethods_doEP14NMethodClosure.exit, %2
  ret void
}